target datalayout = "e-m:e-p270:32:32-p271:32:32-p272:64:64-i64:64-i128:128-f80:128-n8:16:32:64-S128"
target triple = "x86_64-pc-linux-gnu"

%"class.__gnu_cxx::__normal_iterator" = type { ptr }
%"class.gmx::CompositeSimulatorElement" = type <{ %"class.gmx::ISimulatorElement", %"class.std::vector", %"class.std::vector.0", i32, [4 x i8] }>
%"class.gmx::ISimulatorElement" = type { ptr }
%"class.std::vector" = type { %"struct.std::_Vector_base" }
%"struct.std::_Vector_base" = type { %"struct.std::_Vector_base<gmx::compat::not_null<gmx::ISimulatorElement *>, std::allocator<gmx::compat::not_null<gmx::ISimulatorElement *>>>::_Vector_impl" }
%"struct.std::_Vector_base<gmx::compat::not_null<gmx::ISimulatorElement *>, std::allocator<gmx::compat::not_null<gmx::ISimulatorElement *>>>::_Vector_impl" = type { %"struct.std::_Vector_base<gmx::compat::not_null<gmx::ISimulatorElement *>, std::allocator<gmx::compat::not_null<gmx::ISimulatorElement *>>>::_Vector_impl_data" }
%"struct.std::_Vector_base<gmx::compat::not_null<gmx::ISimulatorElement *>, std::allocator<gmx::compat::not_null<gmx::ISimulatorElement *>>>::_Vector_impl_data" = type { ptr, ptr, ptr }
%"class.std::vector.0" = type { %"struct.std::_Vector_base.1" }
%"struct.std::_Vector_base.1" = type { %"struct.std::_Vector_base<std::unique_ptr<gmx::ISimulatorElement>, std::allocator<std::unique_ptr<gmx::ISimulatorElement>>>::_Vector_impl" }
%"struct.std::_Vector_base<std::unique_ptr<gmx::ISimulatorElement>, std::allocator<std::unique_ptr<gmx::ISimulatorElement>>>::_Vector_impl" = type { %"struct.std::_Vector_base<std::unique_ptr<gmx::ISimulatorElement>, std::allocator<std::unique_ptr<gmx::ISimulatorElement>>>::_Vector_impl_data" }
%"struct.std::_Vector_base<std::unique_ptr<gmx::ISimulatorElement>, std::allocator<std::unique_ptr<gmx::ISimulatorElement>>>::_Vector_impl_data" = type { ptr, ptr, ptr }
%"class.gmx::compat::not_null" = type { ptr }

; Function Attrs: mustprogress nounwind uwtable
define linkonce_odr noundef ptr @_ZNK3gmx6compat8not_nullIPNS_17ISimulatorElementEE3getEv(ptr noundef nonnull align 8 dereferenceable(8) %0) #1 comdat align 2 {
  %2 = alloca ptr, align 8
  store ptr %0, ptr %2, align 8
  %3 = load ptr, ptr %2, align 8
  %4 = getelementptr inbounds %"class.gmx::compat::not_null", ptr %3, i32 0, i32 0
  %5 = load ptr, ptr %4, align 8
  ret ptr %5
}

; Function Attrs: mustprogress nounwind uwtable
define linkonce_odr noundef nonnull align 8 dereferenceable(8) ptr @_ZNK9__gnu_cxx17__normal_iteratorIPN3gmx6compat8not_nullIPNS1_17ISimulatorElementEEESt6vectorIS6_SaIS6_EEE4baseEv(ptr noundef nonnull align 8 dereferenceable(8) %0) #1 comdat align 2 {
  %2 = alloca ptr, align 8
  store ptr %0, ptr %2, align 8
  %3 = load ptr, ptr %2, align 8
  %4 = getelementptr inbounds %"class.__gnu_cxx::__normal_iterator", ptr %3, i32 0, i32 0
  ret ptr %4
}

; Function Attrs: mustprogress nounwind uwtable
define linkonce_odr void @_ZN9__gnu_cxx17__normal_iteratorIPN3gmx6compat8not_nullIPNS1_17ISimulatorElementEEESt6vectorIS6_SaIS6_EEEC2ERKS7_(ptr noundef nonnull align 8 dereferenceable(8) %0, ptr noundef nonnull align 8 dereferenceable(8) %1) unnamed_addr #1 comdat align 2 {
  %3 = alloca ptr, align 8
  %4 = alloca ptr, align 8
  store ptr %0, ptr %3, align 8
  store ptr %1, ptr %4, align 8
  %5 = load ptr, ptr %3, align 8
  %6 = getelementptr inbounds %"class.__gnu_cxx::__normal_iterator", ptr %5, i32 0, i32 0
  %7 = load ptr, ptr %4, align 8
  %8 = load ptr, ptr %7, align 8
  store ptr %8, ptr %6, align 8
  ret void
}

; Function Attrs: mustprogress nounwind uwtable
define linkonce_odr noundef nonnull align 8 dereferenceable(8) ptr @_ZN9__gnu_cxx17__normal_iteratorIPN3gmx6compat8not_nullIPNS1_17ISimulatorElementEEESt6vectorIS6_SaIS6_EEEppEv(ptr noundef nonnull align 8 dereferenceable(8) %0) #1 comdat align 2 {
  %2 = alloca ptr, align 8
  store ptr %0, ptr %2, align 8
  %3 = load ptr, ptr %2, align 8
  %4 = getelementptr inbounds %"class.__gnu_cxx::__normal_iterator", ptr %3, i32 0, i32 0
  %5 = load ptr, ptr %4, align 8
  %6 = getelementptr inbounds %"class.gmx::compat::not_null", ptr %5, i32 1
  store ptr %6, ptr %4, align 8
  ret ptr %3
}

; Function Attrs: mustprogress uwtable
define linkonce_odr noundef ptr @_ZNK3gmx6compat8not_nullIPNS_17ISimulatorElementEEptEv(ptr noundef nonnull align 8 dereferenceable(8) %0) #0 comdat align 2 {
  %2 = alloca ptr, align 8
  store ptr %0, ptr %2, align 8
  %3 = load ptr, ptr %2, align 8
  %4 = call noundef ptr @_ZNK3gmx6compat8not_nullIPNS_17ISimulatorElementEE3getEv(ptr noundef nonnull align 8 dereferenceable(8) %3)
  ret ptr %4
}

; Function Attrs: mustprogress nounwind uwtable
define linkonce_odr noundef nonnull align 8 dereferenceable(8) ptr @_ZNK9__gnu_cxx17__normal_iteratorIPN3gmx6compat8not_nullIPNS1_17ISimulatorElementEEESt6vectorIS6_SaIS6_EEEdeEv(ptr noundef nonnull align 8 dereferenceable(8) %0) #1 comdat align 2 {
  %2 = alloca ptr, align 8
  store ptr %0, ptr %2, align 8
  %3 = load ptr, ptr %2, align 8
  %4 = getelementptr inbounds %"class.__gnu_cxx::__normal_iterator", ptr %3, i32 0, i32 0
  %5 = load ptr, ptr %4, align 8
  ret ptr %5
}

; Function Attrs: mustprogress nounwind uwtable
define linkonce_odr noundef zeroext i1 @_ZN9__gnu_cxxneIPN3gmx6compat8not_nullIPNS1_17ISimulatorElementEEESt6vectorIS6_SaIS6_EEEEbRKNS_17__normal_iteratorIT_T0_EESG_(ptr noundef nonnull align 8 dereferenceable(8) %0, ptr noundef nonnull align 8 dereferenceable(8) %1) #1 comdat {
  %3 = alloca ptr, align 8
  %4 = alloca ptr, align 8
  store ptr %0, ptr %3, align 8
  store ptr %1, ptr %4, align 8
  %5 = load ptr, ptr %3, align 8
  %6 = call noundef nonnull align 8 dereferenceable(8) ptr @_ZNK9__gnu_cxx17__normal_iteratorIPN3gmx6compat8not_nullIPNS1_17ISimulatorElementEEESt6vectorIS6_SaIS6_EEE4baseEv(ptr noundef nonnull align 8 dereferenceable(8) %5) #5
  %7 = load ptr, ptr %6, align 8
  %8 = load ptr, ptr %4, align 8
  %9 = call noundef nonnull align 8 dereferenceable(8) ptr @_ZNK9__gnu_cxx17__normal_iteratorIPN3gmx6compat8not_nullIPNS1_17ISimulatorElementEEESt6vectorIS6_SaIS6_EEE4baseEv(ptr noundef nonnull align 8 dereferenceable(8) %8) #5
  %10 = load ptr, ptr %9, align 8
  %11 = icmp ne ptr %7, %10
  ret i1 %11
}

; Function Attrs: mustprogress nounwind uwtable
define linkonce_odr ptr @_ZNSt6vectorIN3gmx6compat8not_nullIPNS0_17ISimulatorElementEEESaIS5_EE3endEv(ptr noundef nonnull align 8 dereferenceable(24) %0) #1 comdat align 2 {
  %2 = alloca %"class.__gnu_cxx::__normal_iterator", align 8
  %3 = alloca ptr, align 8
  store ptr %0, ptr %3, align 8
  %4 = load ptr, ptr %3, align 8
  %5 = getelementptr inbounds %"struct.std::_Vector_base", ptr %4, i32 0, i32 0
  %6 = getelementptr inbounds %"struct.std::_Vector_base<gmx::compat::not_null<gmx::ISimulatorElement *>, std::allocator<gmx::compat::not_null<gmx::ISimulatorElement *>>>::_Vector_impl_data", ptr %5, i32 0, i32 1
  call void @_ZN9__gnu_cxx17__normal_iteratorIPN3gmx6compat8not_nullIPNS1_17ISimulatorElementEEESt6vectorIS6_SaIS6_EEEC2ERKS7_(ptr noundef nonnull align 8 dereferenceable(8) %2, ptr noundef nonnull align 8 dereferenceable(8) %6) #5
  %7 = getelementptr inbounds %"class.__gnu_cxx::__normal_iterator", ptr %2, i32 0, i32 0
  %8 = load ptr, ptr %7, align 8
  ret ptr %8
}

; Function Attrs: mustprogress nounwind uwtable
define linkonce_odr ptr @_ZNSt6vectorIN3gmx6compat8not_nullIPNS0_17ISimulatorElementEEESaIS5_EE5beginEv(ptr noundef nonnull align 8 dereferenceable(24) %0) #1 comdat align 2 {
  %2 = alloca %"class.__gnu_cxx::__normal_iterator", align 8
  %3 = alloca ptr, align 8
  store ptr %0, ptr %3, align 8
  %4 = load ptr, ptr %3, align 8
  %5 = getelementptr inbounds %"struct.std::_Vector_base", ptr %4, i32 0, i32 0
  %6 = getelementptr inbounds %"struct.std::_Vector_base<gmx::compat::not_null<gmx::ISimulatorElement *>, std::allocator<gmx::compat::not_null<gmx::ISimulatorElement *>>>::_Vector_impl_data", ptr %5, i32 0, i32 0
  call void @_ZN9__gnu_cxx17__normal_iteratorIPN3gmx6compat8not_nullIPNS1_17ISimulatorElementEEESt6vectorIS6_SaIS6_EEEC2ERKS7_(ptr noundef nonnull align 8 dereferenceable(8) %2, ptr noundef nonnull align 8 dereferenceable(8) %6) #5
  %7 = getelementptr inbounds %"class.__gnu_cxx::__normal_iterator", ptr %2, i32 0, i32 0
  %8 = load ptr, ptr %7, align 8
  ret ptr %8
}

; Function Attrs: mustprogress nounwind uwtable
define linkonce_odr noundef zeroext i1 @_Z11do_per_stepll(i64 noundef %0, i64 noundef %1) #1 comdat {
  %3 = alloca i1, align 1
  %4 = alloca i64, align 8
  %5 = alloca i64, align 8
  store i64 %0, ptr %4, align 8
  store i64 %1, ptr %5, align 8
  %6 = load i64, ptr %5, align 8
  %7 = icmp ne i64 %6, 0
  br i1 %7, label %8, label %13

8:                                                ; preds = %2
  %9 = load i64, ptr %4, align 8
  %10 = load i64, ptr %5, align 8
  %11 = srem i64 %9, %10
  %12 = icmp eq i64 %11, 0
  store i1 %12, ptr %3, align 1
  br label %14

13:                                               ; preds = %2
  store i1 false, ptr %3, align 1
  br label %14

14:                                               ; preds = %13, %8
  %15 = load i1, ptr %3, align 1
  ret i1 %15
}

; Function Attrs: mustprogress uwtable
define void @_ZN3gmx25CompositeSimulatorElement12scheduleTaskEldRKSt8functionIFvS1_IFvvEEEE(ptr noundef nonnull align 8 dereferenceable(64) %0, i64 noundef %1, double noundef %2, ptr noundef nonnull align 1 %3) unnamed_addr #0 align 2 {
  %5 = alloca ptr, align 8
  %6 = alloca i64, align 8
  %7 = alloca double, align 8
  %8 = alloca ptr, align 8
  %9 = alloca ptr, align 8
  %10 = alloca %"class.__gnu_cxx::__normal_iterator", align 8
  %11 = alloca %"class.__gnu_cxx::__normal_iterator", align 8
  %12 = alloca ptr, align 8
  store ptr %0, ptr %5, align 8
  store i64 %1, ptr %6, align 8
  store double %2, ptr %7, align 8
  store ptr %3, ptr %8, align 8
  %13 = load ptr, ptr %5, align 8
  %14 = load i64, ptr %6, align 8
  %15 = getelementptr inbounds %"class.gmx::CompositeSimulatorElement", ptr %13, i32 0, i32 3
  %16 = load i32, ptr %15, align 8
  %17 = sext i32 %16 to i64
  %18 = call noundef zeroext i1 @_Z11do_per_stepll(i64 noundef %14, i64 noundef %17)
  br i1 %18, label %19, label %42

19:                                               ; preds = %4
  %20 = getelementptr inbounds %"class.gmx::CompositeSimulatorElement", ptr %13, i32 0, i32 1
  store ptr %20, ptr %9, align 8
  %21 = load ptr, ptr %9, align 8
  %22 = call ptr @_ZNSt6vectorIN3gmx6compat8not_nullIPNS0_17ISimulatorElementEEESaIS5_EE5beginEv(ptr noundef nonnull align 8 dereferenceable(24) %21) #5
  %23 = getelementptr inbounds %"class.__gnu_cxx::__normal_iterator", ptr %10, i32 0, i32 0
  store ptr %22, ptr %23, align 8
  %24 = load ptr, ptr %9, align 8
  %25 = call ptr @_ZNSt6vectorIN3gmx6compat8not_nullIPNS0_17ISimulatorElementEEESaIS5_EE3endEv(ptr noundef nonnull align 8 dereferenceable(24) %24) #5
  %26 = getelementptr inbounds %"class.__gnu_cxx::__normal_iterator", ptr %11, i32 0, i32 0
  store ptr %25, ptr %26, align 8
  br label %27

27:                                               ; preds = %39, %19
  %28 = call noundef zeroext i1 @_ZN9__gnu_cxxneIPN3gmx6compat8not_nullIPNS1_17ISimulatorElementEEESt6vectorIS6_SaIS6_EEEEbRKNS_17__normal_iteratorIT_T0_EESG_(ptr noundef nonnull align 8 dereferenceable(8) %10, ptr noundef nonnull align 8 dereferenceable(8) %11) #5
  br i1 %28, label %29, label %41

29:                                               ; preds = %27
  %30 = call noundef nonnull align 8 dereferenceable(8) ptr @_ZNK9__gnu_cxx17__normal_iteratorIPN3gmx6compat8not_nullIPNS1_17ISimulatorElementEEESt6vectorIS6_SaIS6_EEEdeEv(ptr noundef nonnull align 8 dereferenceable(8) %10) #5
  store ptr %30, ptr %12, align 8
  %31 = load ptr, ptr %12, align 8
  %32 = call noundef ptr @_ZNK3gmx6compat8not_nullIPNS_17ISimulatorElementEEptEv(ptr noundef nonnull align 8 dereferenceable(8) %31)
  %33 = load i64, ptr %6, align 8
  %34 = load double, ptr %7, align 8
  %35 = load ptr, ptr %8, align 8
  %36 = load ptr, ptr %32, align 8
  %37 = getelementptr inbounds ptr, ptr %36, i64 0
  %38 = load ptr, ptr %37, align 8
  call void %38(ptr noundef nonnull align 8 dereferenceable(8) %32, i64 noundef %33, double noundef %34, ptr noundef nonnull align 1 %35)
  br label %39

39:                                               ; preds = %29
  %40 = call noundef nonnull align 8 dereferenceable(8) ptr @_ZN9__gnu_cxx17__normal_iteratorIPN3gmx6compat8not_nullIPNS1_17ISimulatorElementEEESt6vectorIS6_SaIS6_EEEppEv(ptr noundef nonnull align 8 dereferenceable(8) %10) #5
  br label %27

41:                                               ; preds = %27
  br label %42

42:                                               ; preds = %41, %4
  ret void
}