; Function Attrs: mustprogress uwtable
define void @_ZN3gmx25CompositeSimulatorElement12scheduleTaskEldRKSt8functionIFvS1_IFvvEEEE(ptr nocapture noundef nonnull readonly align 8 dereferenceable(64) %0, i64 noundef %1, double noundef %2, ptr noundef nonnull align 1 %3) unnamed_addr #0 align 2 {
  %5 = getelementptr inbounds i8, ptr %0, i64 56
  %6 = load i32, ptr %5, align 8
  %.not.i = icmp eq i32 %6, 0
  br i1 %.not.i, label %_Z11do_per_stepll.exit.thread, label %_Z11do_per_stepll.exit

_Z11do_per_stepll.exit:                           ; preds = %4
  %7 = sext i32 %6 to i64
  %8 = srem i64 %1, %7
  %9 = icmp eq i64 %8, 0
  br i1 %9, label %10, label %_Z11do_per_stepll.exit.thread

10:                                               ; preds = %_Z11do_per_stepll.exit
  %11 = getelementptr inbounds i8, ptr %0, i64 8
  %12 = load ptr, ptr %11, align 8
  %13 = getelementptr inbounds i8, ptr %0, i64 16
  %14 = load ptr, ptr %13, align 8
  %.not11 = icmp eq ptr %12, %14
  br i1 %.not11, label %_Z11do_per_stepll.exit.thread, label %.lr.ph

.lr.ph:                                           ; preds = %10, %.lr.ph
  %.sroa.07.012 = phi ptr [ %18, %.lr.ph ], [ %12, %10 ]
  %15 = load ptr, ptr %.sroa.07.012, align 8
  %16 = load ptr, ptr %15, align 8
  %17 = load ptr, ptr %16, align 8
  tail call void %17(ptr noundef nonnull align 8 dereferenceable(8) %15, i64 noundef %1, double noundef %2, ptr noundef nonnull align 1 %3)
  %18 = getelementptr inbounds i8, ptr %.sroa.07.012, i64 8
  %.not = icmp eq ptr %18, %14
  br i1 %.not, label %_Z11do_per_stepll.exit.thread, label %.lr.ph

_Z11do_per_stepll.exit.thread:                    ; preds = %.lr.ph, %10, %4, %_Z11do_per_stepll.exit
  ret void
}